; Function Attrs: null_pointer_is_valid sspstrong uwtable
define internal i32 @get_server_greeting_len(ptr noundef %0, ptr noundef %1, i32 %2, ptr readnone captures(none) %3) #0 {
  %5 = tail call ptr @find_or_create_conversation(ptr noundef %0)
  %6 = load i32, ptr @proto_twamp_control, align 4
  %7 = tail call ptr @conversation_get_proto_data(ptr noundef %5, i32 noundef %6)
  %8 = icmp eq ptr %7, null
  br i1 %8, label %11, label %9

9:                                                ; preds = %4
  %10 = tail call i32 @tvb_captured_length(ptr noundef %1)
  br label %11

11:                                               ; preds = %4, %9
  %.0 = phi i32 [ %10, %9 ], [ 64, %4 ]
  ret i32 %.0
}